target datalayout = "e-m:e-p270:32:32-p271:32:32-p272:64:64-i64:64-i128:128-f80:128-n8:16:32:64-S128"
target triple = "x86_64-pc-linux-gnu"

%struct.xorkey_st = type { [32 x i8], [32 x i8], i32, i32, ptr, %struct.CRYPTO_REF_COUNT }
%struct.CRYPTO_REF_COUNT = type { i32 }
%struct.xor_gen_ctx = type { i32, ptr }

@.str.2 = private unnamed_addr constant [31 x i8] c"../openssl/test/tls-provider.c\00", align 1
@private_constant = internal constant [32 x i8] c"\D3kT\EC[\AC\89\96\8C,f\A5g\0D\E3\DDCi\BC\83=`\C7\B8+\1CZ\FD\B5\CD\D0\F8", align 16

; Function Attrs: inlinehint nounwind uwtable
define internal i32 @CRYPTO_NEW_REF(ptr noundef %0, i32 noundef %1) #3 {
  %3 = alloca ptr, align 8
  %4 = alloca i32, align 4
  store ptr %0, ptr %3, align 8, !tbaa !13
  store i32 %1, ptr %4, align 4, !tbaa !27
  %5 = load i32, ptr %4, align 4, !tbaa !27
  %6 = load ptr, ptr %3, align 8, !tbaa !13
  %7 = getelementptr inbounds nuw %struct.CRYPTO_REF_COUNT, ptr %6, i32 0, i32 0
  store atomic i32 %5, ptr %7 seq_cst, align 4, !tbaa !61
  ret i32 1
}

; Function Attrs: nounwind uwtable
define internal ptr @xor_newkey(ptr noundef %0) #0 {
  %2 = alloca ptr, align 8
  %3 = alloca ptr, align 8
  %4 = alloca ptr, align 8
  %5 = alloca i32, align 4
  store ptr %0, ptr %3, align 8, !tbaa !13
  call void @llvm.lifetime.start.p0(i64 8, ptr %4) #8
  %6 = call noalias ptr @CRYPTO_zalloc(i64 noundef 88, ptr noundef @.str.2, i32 noundef 691)
  store ptr %6, ptr %4, align 8, !tbaa !41
  %7 = load ptr, ptr %4, align 8, !tbaa !41
  %8 = icmp eq ptr %7, null
  br i1 %8, label %9, label %10

9:                                                ; preds = %1
  store ptr null, ptr %2, align 8
  store i32 1, ptr %5, align 4
  br label %19

10:                                               ; preds = %1
  %11 = load ptr, ptr %4, align 8, !tbaa !41
  %12 = getelementptr inbounds nuw %struct.xorkey_st, ptr %11, i32 0, i32 5
  %13 = call i32 @CRYPTO_NEW_REF(ptr noundef %12, i32 noundef 1)
  %14 = icmp ne i32 %13, 0
  br i1 %14, label %17, label %15

15:                                               ; preds = %10
  %16 = load ptr, ptr %4, align 8, !tbaa !41
  call void @CRYPTO_free(ptr noundef %16, ptr noundef @.str.2, i32 noundef 697)
  store ptr null, ptr %2, align 8
  store i32 1, ptr %5, align 4
  br label %19

17:                                               ; preds = %10
  %18 = load ptr, ptr %4, align 8, !tbaa !41
  store ptr %18, ptr %2, align 8
  store i32 1, ptr %5, align 4
  br label %19

19:                                               ; preds = %17, %15, %9
  call void @llvm.lifetime.end.p0(i64 8, ptr %4) #8
  %20 = load ptr, ptr %2, align 8
  ret ptr %20
}

; Function Attrs: nounwind uwtable
define internal ptr @xor_gen(ptr noundef %0, ptr noundef %1, ptr noundef %2) #0 {
  %4 = alloca ptr, align 8
  %5 = alloca ptr, align 8
  %6 = alloca ptr, align 8
  %7 = alloca ptr, align 8
  %8 = alloca ptr, align 8
  %9 = alloca ptr, align 8
  %10 = alloca i64, align 8
  %11 = alloca i32, align 4
  store ptr %0, ptr %5, align 8, !tbaa !13
  store ptr %1, ptr %6, align 8, !tbaa !13
  store ptr %2, ptr %7, align 8, !tbaa !13
  call void @llvm.lifetime.start.p0(i64 8, ptr %8) #8
  %12 = load ptr, ptr %5, align 8, !tbaa !13
  store ptr %12, ptr %8, align 8, !tbaa !45
  call void @llvm.lifetime.start.p0(i64 8, ptr %9) #8
  %13 = call ptr @xor_newkey(ptr noundef null)
  store ptr %13, ptr %9, align 8, !tbaa !41
  call void @llvm.lifetime.start.p0(i64 8, ptr %10) #8
  %14 = load ptr, ptr %9, align 8, !tbaa !41
  %15 = icmp eq ptr %14, null
  br i1 %15, label %16, label %17

16:                                               ; preds = %3
  store ptr null, ptr %4, align 8
  store i32 1, ptr %11, align 4
  br label %65

17:                                               ; preds = %3
  %18 = load ptr, ptr %8, align 8, !tbaa !45
  %19 = getelementptr inbounds nuw %struct.xor_gen_ctx, ptr %18, i32 0, i32 0
  %20 = load i32, ptr %19, align 8, !tbaa !47
  %21 = and i32 %20, 3
  %22 = icmp ne i32 %21, 0
  br i1 %22, label %23, label %63

23:                                               ; preds = %17
  %24 = load ptr, ptr %8, align 8, !tbaa !45
  %25 = getelementptr inbounds nuw %struct.xor_gen_ctx, ptr %24, i32 0, i32 1
  %26 = load ptr, ptr %25, align 8, !tbaa !49
  %27 = load ptr, ptr %9, align 8, !tbaa !41
  %28 = getelementptr inbounds nuw %struct.xorkey_st, ptr %27, i32 0, i32 0
  %29 = getelementptr inbounds [32 x i8], ptr %28, i64 0, i64 0
  %30 = call i32 @RAND_bytes_ex(ptr noundef %26, ptr noundef %29, i64 noundef 32, i32 noundef 0)
  %31 = icmp sle i32 %30, 0
  br i1 %31, label %32, label %34

32:                                               ; preds = %23
  %33 = load ptr, ptr %9, align 8, !tbaa !41
  call void @CRYPTO_free(ptr noundef %33, ptr noundef @.str.2, i32 noundef 985)
  store ptr null, ptr %4, align 8
  store i32 1, ptr %11, align 4
  br label %65

34:                                               ; preds = %23
  store i64 0, ptr %10, align 8, !tbaa !35
  br label %35

35:                                               ; preds = %55, %34
  %36 = load i64, ptr %10, align 8, !tbaa !35
  %37 = icmp ult i64 %36, 32
  br i1 %37, label %38, label %58

38:                                               ; preds = %35
  %39 = load ptr, ptr %9, align 8, !tbaa !41
  %40 = getelementptr inbounds nuw %struct.xorkey_st, ptr %39, i32 0, i32 0
  %41 = load i64, ptr %10, align 8, !tbaa !35
  %42 = getelementptr inbounds nuw [32 x i8], ptr %40, i64 0, i64 %41
  %43 = load i8, ptr %42, align 1, !tbaa !51
  %44 = zext i8 %43 to i32
  %45 = load i64, ptr %10, align 8, !tbaa !35
  %46 = getelementptr inbounds nuw [32 x i8], ptr @private_constant, i64 0, i64 %45
  %47 = load i8, ptr %46, align 1, !tbaa !51
  %48 = zext i8 %47 to i32
  %49 = xor i32 %44, %48
  %50 = trunc i32 %49 to i8
  %51 = load ptr, ptr %9, align 8, !tbaa !41
  %52 = getelementptr inbounds nuw %struct.xorkey_st, ptr %51, i32 0, i32 1
  %53 = load i64, ptr %10, align 8, !tbaa !35
  %54 = getelementptr inbounds nuw [32 x i8], ptr %52, i64 0, i64 %53
  store i8 %50, ptr %54, align 1, !tbaa !51
  br label %55

55:                                               ; preds = %38
  %56 = load i64, ptr %10, align 8, !tbaa !35
  %57 = add i64 %56, 1
  store i64 %57, ptr %10, align 8, !tbaa !35
  br label %35, !llvm.loop !52

58:                                               ; preds = %35
  %59 = load ptr, ptr %9, align 8, !tbaa !41
  %60 = getelementptr inbounds nuw %struct.xorkey_st, ptr %59, i32 0, i32 2
  store i32 1, ptr %60, align 8, !tbaa !53
  %61 = load ptr, ptr %9, align 8, !tbaa !41
  %62 = getelementptr inbounds nuw %struct.xorkey_st, ptr %61, i32 0, i32 3
  store i32 1, ptr %62, align 4, !tbaa !56
  br label %63

63:                                               ; preds = %58, %17
  %64 = load ptr, ptr %9, align 8, !tbaa !41
  store ptr %64, ptr %4, align 8
  store i32 1, ptr %11, align 4
  br label %65

65:                                               ; preds = %63, %32, %16
  call void @llvm.lifetime.end.p0(i64 8, ptr %10) #8
  call void @llvm.lifetime.end.p0(i64 8, ptr %9) #8
  call void @llvm.lifetime.end.p0(i64 8, ptr %8) #8
  %66 = load ptr, ptr %4, align 8
  ret ptr %66
}