; Function Attrs: nounwind uwtable
define internal ptr @xor_gen(ptr noundef readonly captures(none) %0, ptr readnone captures(none) %1, ptr readnone captures(none) %2) #0 {
  %4 = tail call noalias ptr @CRYPTO_zalloc(i64 noundef 88, ptr noundef nonnull @.str.2, i32 noundef 691) #16
  %5 = icmp eq ptr %4, null
  br i1 %5, label %xor_newkey.exit.thread, label %6

6:                                                ; preds = %3
  %7 = getelementptr inbounds nuw i8, ptr %4, i64 80
  store atomic i32 1, ptr %7 seq_cst, align 4, !tbaa !33
  %8 = load i32, ptr %0, align 8, !tbaa !37
  %9 = and i32 %8, 3
  %.not = icmp eq i32 %9, 0
  br i1 %.not, label %xor_newkey.exit.thread, label %10

10:                                               ; preds = %6
  %11 = getelementptr inbounds nuw i8, ptr %0, i64 8
  %12 = load ptr, ptr %11, align 8, !tbaa !35
  %13 = tail call i32 @RAND_bytes_ex(ptr noundef %12, ptr noundef nonnull %4, i64 noundef 32, i32 noundef 0) #16
  %14 = icmp slt i32 %13, 1
  br i1 %14, label %16, label %.preheader

.preheader:                                       ; preds = %10
  %15 = getelementptr inbounds nuw i8, ptr %4, i64 32
  br label %17

16:                                               ; preds = %10
  tail call void @CRYPTO_free(ptr noundef nonnull %4, ptr noundef nonnull @.str.2, i32 noundef 985) #16
  br label %xor_newkey.exit.thread

17:                                               ; preds = %.preheader, %17
  %.018 = phi i64 [ 0, %.preheader ], [ %24, %17 ]
  %18 = getelementptr inbounds nuw [32 x i8], ptr %4, i64 0, i64 %.018
  %19 = load i8, ptr %18, align 1, !tbaa !39
  %20 = getelementptr inbounds nuw [32 x i8], ptr @private_constant, i64 0, i64 %.018
  %21 = load i8, ptr %20, align 1, !tbaa !39
  %22 = xor i8 %21, %19
  %23 = getelementptr inbounds nuw [32 x i8], ptr %15, i64 0, i64 %.018
  store i8 %22, ptr %23, align 1, !tbaa !39
  %24 = add nuw nsw i64 %.018, 1
  %exitcond.not = icmp eq i64 %24, 32
  br i1 %exitcond.not, label %25, label %17, !llvm.loop !40

25:                                               ; preds = %17
  %26 = getelementptr inbounds nuw i8, ptr %4, i64 64
  store i32 1, ptr %26, align 8, !tbaa !41
  %27 = getelementptr inbounds nuw i8, ptr %4, i64 68
  store i32 1, ptr %27, align 4, !tbaa !43
  br label %xor_newkey.exit.thread

xor_newkey.exit.thread:                           ; preds = %3, %6, %25, %16
  %.016 = phi ptr [ null, %16 ], [ %4, %25 ], [ %4, %6 ], [ null, %3 ]
  ret ptr %.016
}